target datalayout = "e-m:e-p270:32:32-p271:32:32-p272:64:64-i64:64-i128:128-f80:128-n8:16:32:64-S128"
target triple = "x86_64-pc-linux-gnu"

%struct._packet_info = type { ptr, ptr, i32, i32, %struct.nstime_t, %struct.nstime_t, %struct.nstime_t, i8, ptr, ptr, ptr, ptr, %struct._address, %struct._address, %struct._address, %struct._address, %struct._address, %struct._address, i32, ptr, i8, [3 x i8], %struct.anon, i32, i32, i32, i32, ptr, i8, ptr, ptr, i16, i16, i32, i32, i16, i32, i32, ptr, ptr, ptr, i8, i8, i16, i16, i16, i32, i16, i16, ptr, ptr, ptr, ptr, ptr, i32, i32 }
%struct.nstime_t = type { i64, i32 }
%struct._address = type { i32, i32, ptr, ptr }
%struct.anon = type { i8, [3 x i8] }
%struct._proto_node = type { ptr, ptr, ptr, ptr, ptr, ptr, ptr }
%struct.field_info = type { ptr, i32, i32, i32, i32, i32, i32, ptr, ptr, ptr, i32, i32 }

@hf_edonkey_string_length = internal global i32 0, align 4
@hf_kademlia_tag_name = internal global i32 0, align 4
@hf_kademlia_tag_name_length = internal global i32 0, align 4
@.str.576 = private unnamed_addr constant [15 x i8] c"UnknownTagName\00", align 1
@.str.577 = private unnamed_addr constant [6 x i8] c" [%s]\00", align 1

; Function Attrs: inlinehint nounwind null_pointer_is_valid sspstrong uwtable
define internal void @proto_item_set_hidden(ptr noundef %0) #4 {
  %2 = alloca ptr, align 8
  store ptr %0, ptr %2, align 8
  %3 = load ptr, ptr %2, align 8
  %4 = icmp ne ptr %3, null
  br i1 %4, label %5, label %24

5:                                                ; preds = %1
  br label %6

6:                                                ; preds = %5
  %7 = load ptr, ptr %2, align 8
  %8 = getelementptr inbounds nuw %struct._proto_node, ptr %7, i32 0, i32 5
  %9 = load ptr, ptr %8, align 8
  %10 = icmp ne ptr %9, null
  br i1 %10, label %11, label %22

11:                                               ; preds = %6
  %12 = load ptr, ptr %2, align 8
  %13 = getelementptr inbounds nuw %struct._proto_node, ptr %12, i32 0, i32 5
  %14 = load ptr, ptr %13, align 8
  %15 = getelementptr inbounds nuw %struct.field_info, ptr %14, i32 0, i32 6
  %16 = load i32, ptr %15, align 4
  %17 = or i32 %16, 1
  %18 = load ptr, ptr %2, align 8
  %19 = getelementptr inbounds nuw %struct._proto_node, ptr %18, i32 0, i32 5
  %20 = load ptr, ptr %19, align 8
  %21 = getelementptr inbounds nuw %struct.field_info, ptr %20, i32 0, i32 6
  store i32 %17, ptr %21, align 4
  br label %22

22:                                               ; preds = %11, %6
  br label %23

23:                                               ; preds = %22
  br label %24

24:                                               ; preds = %23, %1
  ret void
}

; Function Attrs: null_pointer_is_valid sspstrong uwtable
define internal i32 @dissect_kademlia_tagname(ptr noundef %0, ptr noundef %1, i32 noundef %2, ptr noundef %3, ptr noundef %4, ptr noundef %5) #0 {
  %7 = alloca ptr, align 8
  %8 = alloca ptr, align 8
  %9 = alloca i32, align 4
  %10 = alloca ptr, align 8
  %11 = alloca ptr, align 8
  %12 = alloca ptr, align 8
  %13 = alloca ptr, align 8
  %14 = alloca ptr, align 8
  %15 = alloca i8, align 1
  %16 = alloca ptr, align 8
  %17 = alloca ptr, align 8
  %18 = alloca i16, align 2
  store ptr %0, ptr %7, align 8
  store ptr %1, ptr %8, align 8
  store i32 %2, ptr %9, align 4
  store ptr %3, ptr %10, align 8
  store ptr %4, ptr %11, align 8
  store ptr %5, ptr %12, align 8
  call void @llvm.lifetime.start.p0(i64 8, ptr %13) #6
  call void @llvm.lifetime.start.p0(i64 8, ptr %14) #6
  store ptr null, ptr %14, align 8
  call void @llvm.lifetime.start.p0(i64 1, ptr %15) #6
  call void @llvm.lifetime.start.p0(i64 8, ptr %16) #6
  call void @llvm.lifetime.start.p0(i64 8, ptr %17) #6
  call void @llvm.lifetime.start.p0(i64 2, ptr %18) #6
  %19 = load ptr, ptr %7, align 8
  %20 = load i32, ptr %9, align 4
  %21 = call zeroext i16 @tvb_get_letohs(ptr noundef %19, i32 noundef %20)
  store i16 %21, ptr %18, align 2
  %22 = load ptr, ptr %10, align 8
  %23 = load i32, ptr @hf_kademlia_tag_name_length, align 4
  %24 = load ptr, ptr %7, align 8
  %25 = load i32, ptr %9, align 4
  %26 = load i16, ptr %18, align 2
  %27 = zext i16 %26 to i32
  %28 = call ptr @proto_tree_add_uint(ptr noundef %22, i32 noundef %23, ptr noundef %24, i32 noundef %25, i32 noundef 2, i32 noundef %27)
  %29 = load ptr, ptr %10, align 8
  %30 = load i32, ptr @hf_edonkey_string_length, align 4
  %31 = load ptr, ptr %7, align 8
  %32 = load i32, ptr %9, align 4
  %33 = load i16, ptr %18, align 2
  %34 = zext i16 %33 to i32
  %35 = call ptr @proto_tree_add_uint(ptr noundef %29, i32 noundef %30, ptr noundef %31, i32 noundef %32, i32 noundef 2, i32 noundef %34)
  store ptr %35, ptr %17, align 8
  %36 = load ptr, ptr %17, align 8
  call void @proto_item_set_hidden(ptr noundef %36)
  %37 = load ptr, ptr %8, align 8
  %38 = getelementptr inbounds nuw %struct._packet_info, ptr %37, i32 0, i32 51
  %39 = load ptr, ptr %38, align 8
  %40 = load ptr, ptr %7, align 8
  %41 = load i32, ptr %9, align 4
  %42 = add i32 %41, 2
  %43 = load i16, ptr %18, align 2
  %44 = zext i16 %43 to i32
  %45 = call ptr @tvb_get_string_enc(ptr noundef %39, ptr noundef %40, i32 noundef %42, i32 noundef %44, i32 noundef 0)
  store ptr %45, ptr %13, align 8
  store ptr @.str.576, ptr %14, align 8
  %46 = load ptr, ptr %13, align 8
  %47 = icmp ne ptr %46, null
  br i1 %47, label %48, label %59

48:                                               ; preds = %6
  %49 = load i16, ptr %18, align 2
  %50 = zext i16 %49 to i32
  %51 = icmp eq i32 %50, 1
  br i1 %51, label %52, label %59

52:                                               ; preds = %48
  %53 = load ptr, ptr %13, align 8
  %54 = load i8, ptr %53, align 1
  store i8 %54, ptr %15, align 1
  %55 = load i8, ptr %15, align 1
  %56 = zext i8 %55 to i32
  %57 = load ptr, ptr %14, align 8
  %58 = call ptr @val_to_str_const(i32 noundef %56, ptr noundef @kademlia_tags, ptr noundef %57)
  store ptr %58, ptr %14, align 8
  br label %59

59:                                               ; preds = %52, %48, %6
  %60 = load ptr, ptr %10, align 8
  %61 = load i32, ptr @hf_kademlia_tag_name, align 4
  %62 = load ptr, ptr %7, align 8
  %63 = load i32, ptr %9, align 4
  %64 = add i32 %63, 2
  %65 = load i16, ptr %18, align 2
  %66 = zext i16 %65 to i32
  %67 = call ptr @proto_tree_add_item(ptr noundef %60, i32 noundef %61, ptr noundef %62, i32 noundef %64, i32 noundef %66, i32 noundef 0)
  store ptr %67, ptr %16, align 8
  %68 = load ptr, ptr %16, align 8
  %69 = load ptr, ptr %14, align 8
  call void (ptr, ptr, ...) @proto_item_append_text(ptr noundef %68, ptr noundef @.str.577, ptr noundef %69)
  %70 = load ptr, ptr %11, align 8
  %71 = icmp ne ptr %70, null
  br i1 %71, label %72, label %75

72:                                               ; preds = %59
  %73 = load ptr, ptr %13, align 8
  %74 = load ptr, ptr %11, align 8
  store ptr %73, ptr %74, align 8
  br label %75

75:                                               ; preds = %72, %59
  %76 = load ptr, ptr %12, align 8
  %77 = icmp ne ptr %76, null
  br i1 %77, label %78, label %81

78:                                               ; preds = %75
  %79 = load ptr, ptr %14, align 8
  %80 = load ptr, ptr %12, align 8
  store ptr %79, ptr %80, align 8
  br label %81

81:                                               ; preds = %78, %75
  %82 = load i32, ptr %9, align 4
  %83 = add i32 %82, 2
  %84 = load i16, ptr %18, align 2
  %85 = zext i16 %84 to i32
  %86 = add i32 %83, %85
  call void @llvm.lifetime.end.p0(i64 2, ptr %18) #6
  call void @llvm.lifetime.end.p0(i64 8, ptr %17) #6
  call void @llvm.lifetime.end.p0(i64 8, ptr %16) #6
  call void @llvm.lifetime.end.p0(i64 1, ptr %15) #6
  call void @llvm.lifetime.end.p0(i64 8, ptr %14) #6
  call void @llvm.lifetime.end.p0(i64 8, ptr %13) #6
  ret i32 %86
}