; Function Attrs: null_pointer_is_valid sspstrong uwtable
define internal fastcc noundef i32 @dissect_kademlia_tagname(ptr noundef %0, ptr noundef readonly captures(none) %1, i32 noundef %2, ptr noundef %3, ptr noundef writeonly captures(address_is_null) %4, ptr noundef writeonly captures(address_is_null) %5) unnamed_addr #0 {
  %7 = tail call zeroext i16 @tvb_get_letohs(ptr noundef %0, i32 noundef %2)
  %8 = load i32, ptr @hf_kademlia_tag_name_length, align 4
  %9 = zext i16 %7 to i32
  %10 = tail call ptr @proto_tree_add_uint(ptr noundef %3, i32 noundef %8, ptr noundef %0, i32 noundef %2, i32 noundef 2, i32 noundef %9)
  %11 = load i32, ptr @hf_edonkey_string_length, align 4
  %12 = tail call ptr @proto_tree_add_uint(ptr noundef %3, i32 noundef %11, ptr noundef %0, i32 noundef %2, i32 noundef 2, i32 noundef %9)
  %.not.i = icmp eq ptr %12, null
  br i1 %.not.i, label %proto_item_set_hidden.exit, label %13

13:                                               ; preds = %6
  %14 = getelementptr inbounds nuw i8, ptr %12, i64 40
  %15 = load ptr, ptr %14, align 8
  %.not5.i = icmp eq ptr %15, null
  br i1 %.not5.i, label %proto_item_set_hidden.exit, label %16

16:                                               ; preds = %13
  %17 = getelementptr inbounds nuw i8, ptr %15, i64 28
  %18 = load i32, ptr %17, align 4
  %19 = or i32 %18, 1
  store i32 %19, ptr %17, align 4
  br label %proto_item_set_hidden.exit

proto_item_set_hidden.exit:                       ; preds = %6, %13, %16
  %20 = getelementptr inbounds nuw i8, ptr %1, i64 408
  %21 = load ptr, ptr %20, align 8
  %22 = add i32 %2, 2
  %23 = tail call ptr @tvb_get_string_enc(ptr noundef %21, ptr noundef %0, i32 noundef %22, i32 noundef %9, i32 noundef 0)
  %24 = icmp ne ptr %23, null
  %25 = icmp eq i16 %7, 1
  %or.cond = and i1 %25, %24
  br i1 %or.cond, label %26, label %30

26:                                               ; preds = %proto_item_set_hidden.exit
  %27 = load i8, ptr %23, align 1
  %28 = zext i8 %27 to i32
  %29 = tail call ptr @val_to_str_const(i32 noundef %28, ptr noundef nonnull @kademlia_tags, ptr noundef nonnull @.str.576)
  br label %30

30:                                               ; preds = %26, %proto_item_set_hidden.exit
  %.0 = phi ptr [ %29, %26 ], [ @.str.576, %proto_item_set_hidden.exit ]
  %31 = load i32, ptr @hf_kademlia_tag_name, align 4
  %32 = tail call ptr @proto_tree_add_item(ptr noundef %3, i32 noundef %31, ptr noundef %0, i32 noundef %22, i32 noundef %9, i32 noundef 0)
  tail call void (ptr, ptr, ...) @proto_item_append_text(ptr noundef %32, ptr noundef nonnull @.str.577, ptr noundef %.0)
  %.not = icmp eq ptr %4, null
  br i1 %.not, label %34, label %33

33:                                               ; preds = %30
  store ptr %23, ptr %4, align 8
  br label %34

34:                                               ; preds = %33, %30
  %.not38 = icmp eq ptr %5, null
  br i1 %.not38, label %36, label %35

35:                                               ; preds = %34
  store ptr %.0, ptr %5, align 8
  br label %36

36:                                               ; preds = %35, %34
  %37 = add i32 %22, %9
  ret i32 %37
}